target datalayout = "e-m:e-p270:32:32-p271:32:32-p272:64:64-i64:64-i128:128-f80:128-n8:16:32:64-S128"
target triple = "x86_64-pc-linux-gnu"

%struct._zval_struct = type { %union._zend_value, %union.anon, %union.anon.2 }
%union._zend_value = type { i64 }
%union.anon = type { i32 }
%union.anon.2 = type { i32 }

; Function Attrs: nounwind uwtable
define dso_local i32 @add_next_index_resource(ptr noundef %0, ptr noundef %1) #0 {
  %3 = alloca ptr, align 8
  %4 = alloca ptr, align 8
  %5 = alloca %struct._zval_struct, align 8
  %6 = alloca ptr, align 8
  store ptr %0, ptr %3, align 8, !tbaa !8
  store ptr %1, ptr %4, align 8, !tbaa !165
  call void @llvm.lifetime.start.p0(i64 16, ptr %5) #21
  br label %7

7:                                                ; preds = %2
  call void @llvm.lifetime.start.p0(i64 8, ptr %6) #21
  store ptr %5, ptr %6, align 8, !tbaa !8
  %8 = load ptr, ptr %4, align 8, !tbaa !165
  %9 = load ptr, ptr %6, align 8, !tbaa !8
  %10 = getelementptr inbounds nuw %struct._zval_struct, ptr %9, i32 0, i32 0
  store ptr %8, ptr %10, align 8, !tbaa !44
  %11 = load ptr, ptr %6, align 8, !tbaa !8
  %12 = getelementptr inbounds nuw %struct._zval_struct, ptr %11, i32 0, i32 1
  store i32 265, ptr %12, align 8, !tbaa !44
  call void @llvm.lifetime.end.p0(i64 8, ptr %6) #21
  br label %13

13:                                               ; preds = %7
  br label %14

14:                                               ; preds = %13
  %15 = load ptr, ptr %3, align 8, !tbaa !8
  %16 = getelementptr inbounds nuw %struct._zval_struct, ptr %15, i32 0, i32 0
  %17 = load ptr, ptr %16, align 8, !tbaa !44
  %18 = call ptr @zend_hash_next_index_insert(ptr noundef %17, ptr noundef %5)
  %19 = icmp ne ptr %18, null
  %20 = select i1 %19, i32 0, i32 -1
  call void @llvm.lifetime.end.p0(i64 16, ptr %5) #21
  ret i32 %20
}